target datalayout = "e-m:e-p270:32:32-p271:32:32-p272:64:64-i64:64-i128:128-f80:128-n8:16:32:64-S128"
target triple = "x86_64-pc-linux-gnu"

%struct.Node = type { i32 }
%struct.List = type { i32, i32, i32, ptr, [0 x %union.ListCell] }
%union.ListCell = type { ptr }
%struct.PLpgSQL_expr = type { ptr, i32, ptr, ptr, i32, i8, ptr, ptr, ptr, i32, i32, i8, i32, ptr, ptr, ptr, i32, ptr, i8, i32 }
%struct.dlist_node = type { ptr, ptr }
%struct.CachedPlanSource = type { i32, ptr, ptr, i32, ptr, i32, ptr, ptr, i32, i8, ptr, ptr, ptr, ptr, ptr, ptr, ptr, i32, i8, i8, ptr, i8, i8, i8, i8, i32, %struct.dlist_node, double, double, i64, i64 }
%struct.Query = type { i32, i32, i32, i64, i8, ptr, i32, i8, i8, i8, i8, i8, i8, i8, i8, i8, i8, i8, ptr, ptr, ptr, ptr, ptr, i32, ptr, ptr, i32, ptr, ptr, ptr, ptr, ptr, i8, ptr, ptr, ptr, ptr, ptr, ptr, ptr, i32, ptr, ptr, ptr, ptr, i32, i32 }
%struct.FromExpr = type { i32, ptr, ptr }

; Function Attrs: inlinehint nounwind uwtable
define internal ptr @list_nth_cell(ptr noundef %0, i32 noundef %1) #2 {
  %3 = alloca ptr, align 8
  %4 = alloca i32, align 4
  store ptr %0, ptr %3, align 8
  store i32 %1, ptr %4, align 4
  %5 = load ptr, ptr %3, align 8
  %6 = getelementptr inbounds nuw %struct.List, ptr %5, i32 0, i32 3
  %7 = load ptr, ptr %6, align 8
  %8 = load i32, ptr %4, align 4
  %9 = sext i32 %8 to i64
  %10 = getelementptr inbounds %union.ListCell, ptr %7, i64 %9
  ret ptr %10
}

; Function Attrs: inlinehint nounwind uwtable
define internal i32 @list_length(ptr noundef %0) #2 {
  %2 = alloca ptr, align 8
  store ptr %0, ptr %2, align 8
  %3 = load ptr, ptr %2, align 8
  %4 = icmp ne ptr %3, null
  br i1 %4, label %5, label %9

5:                                                ; preds = %1
  %6 = load ptr, ptr %2, align 8
  %7 = getelementptr inbounds nuw %struct.List, ptr %6, i32 0, i32 1
  %8 = load i32, ptr %7, align 4
  br label %10

9:                                                ; preds = %1
  br label %10

10:                                               ; preds = %9, %5
  %11 = phi i32 [ %8, %5 ], [ 0, %9 ]
  ret i32 %11
}

; Function Attrs: nounwind uwtable
define internal zeroext i1 @exec_is_simple_query(ptr noundef %0) #0 {
  %2 = alloca i1, align 1
  %3 = alloca ptr, align 8
  %4 = alloca ptr, align 8
  %5 = alloca ptr, align 8
  %6 = alloca ptr, align 8
  %7 = alloca i32, align 4
  store ptr %0, ptr %3, align 8
  call void @llvm.lifetime.start.p0(i64 8, ptr %4) #12
  call void @llvm.lifetime.start.p0(i64 8, ptr %5) #12
  call void @llvm.lifetime.start.p0(i64 8, ptr %6) #12
  %8 = load ptr, ptr %3, align 8
  %9 = getelementptr inbounds nuw %struct.PLpgSQL_expr, ptr %8, i32 0, i32 6
  %10 = load ptr, ptr %9, align 8
  %11 = call ptr @SPI_plan_get_plan_sources(ptr noundef %10)
  store ptr %11, ptr %4, align 8
  %12 = load ptr, ptr %4, align 8
  %13 = call i32 @list_length(ptr noundef %12)
  %14 = icmp ne i32 %13, 1
  br i1 %14, label %15, label %16

15:                                               ; preds = %1
  store i1 false, ptr %2, align 1
  store i32 1, ptr %7, align 4
  br label %142

16:                                               ; preds = %1
  %17 = load ptr, ptr %4, align 8
  %18 = call ptr @list_nth_cell(ptr noundef %17, i32 noundef 0)
  %19 = load ptr, ptr %18, align 8
  store ptr %19, ptr %5, align 8
  %20 = load ptr, ptr %5, align 8
  %21 = getelementptr inbounds nuw %struct.CachedPlanSource, ptr %20, i32 0, i32 12
  %22 = load ptr, ptr %21, align 8
  %23 = call i32 @list_length(ptr noundef %22)
  %24 = icmp ne i32 %23, 1
  br i1 %24, label %25, label %26

25:                                               ; preds = %16
  store i1 false, ptr %2, align 1
  store i32 1, ptr %7, align 4
  br label %142

26:                                               ; preds = %16
  %27 = load ptr, ptr %5, align 8
  %28 = getelementptr inbounds nuw %struct.CachedPlanSource, ptr %27, i32 0, i32 12
  %29 = load ptr, ptr %28, align 8
  %30 = call ptr @list_nth_cell(ptr noundef %29, i32 noundef 0)
  %31 = load ptr, ptr %30, align 8
  store ptr %31, ptr %6, align 8
  %32 = load ptr, ptr %6, align 8
  %33 = getelementptr inbounds nuw %struct.Node, ptr %32, i32 0, i32 0
  %34 = load i32, ptr %33, align 4
  %35 = icmp eq i32 %34, 67
  br i1 %35, label %37, label %36

36:                                               ; preds = %26
  store i1 false, ptr %2, align 1
  store i32 1, ptr %7, align 4
  br label %142

37:                                               ; preds = %26
  %38 = load ptr, ptr %6, align 8
  %39 = getelementptr inbounds nuw %struct.Query, ptr %38, i32 0, i32 1
  %40 = load i32, ptr %39, align 4
  %41 = icmp ne i32 %40, 1
  br i1 %41, label %42, label %43

42:                                               ; preds = %37
  store i1 false, ptr %2, align 1
  store i32 1, ptr %7, align 4
  br label %142

43:                                               ; preds = %37
  %44 = load ptr, ptr %6, align 8
  %45 = getelementptr inbounds nuw %struct.Query, ptr %44, i32 0, i32 19
  %46 = load ptr, ptr %45, align 8
  %47 = icmp ne ptr %46, null
  br i1 %47, label %48, label %49

48:                                               ; preds = %43
  store i1 false, ptr %2, align 1
  store i32 1, ptr %7, align 4
  br label %142

49:                                               ; preds = %43
  %50 = load ptr, ptr %6, align 8
  %51 = getelementptr inbounds nuw %struct.Query, ptr %50, i32 0, i32 7
  %52 = load i8, ptr %51, align 4, !range !3, !noundef !4
  %53 = trunc i8 %52 to i1
  br i1 %53, label %133, label %54

54:                                               ; preds = %49
  %55 = load ptr, ptr %6, align 8
  %56 = getelementptr inbounds nuw %struct.Query, ptr %55, i32 0, i32 8
  %57 = load i8, ptr %56, align 1, !range !3, !noundef !4
  %58 = trunc i8 %57 to i1
  br i1 %58, label %133, label %59

59:                                               ; preds = %54
  %60 = load ptr, ptr %6, align 8
  %61 = getelementptr inbounds nuw %struct.Query, ptr %60, i32 0, i32 9
  %62 = load i8, ptr %61, align 2, !range !3, !noundef !4
  %63 = trunc i8 %62 to i1
  br i1 %63, label %133, label %64

64:                                               ; preds = %59
  %65 = load ptr, ptr %6, align 8
  %66 = getelementptr inbounds nuw %struct.Query, ptr %65, i32 0, i32 10
  %67 = load i8, ptr %66, align 1, !range !3, !noundef !4
  %68 = trunc i8 %67 to i1
  br i1 %68, label %133, label %69

69:                                               ; preds = %64
  %70 = load ptr, ptr %6, align 8
  %71 = getelementptr inbounds nuw %struct.Query, ptr %70, i32 0, i32 18
  %72 = load ptr, ptr %71, align 8
  %73 = icmp ne ptr %72, null
  br i1 %73, label %133, label %74

74:                                               ; preds = %69
  %75 = load ptr, ptr %6, align 8
  %76 = getelementptr inbounds nuw %struct.Query, ptr %75, i32 0, i32 21
  %77 = load ptr, ptr %76, align 8
  %78 = getelementptr inbounds nuw %struct.FromExpr, ptr %77, i32 0, i32 1
  %79 = load ptr, ptr %78, align 8
  %80 = icmp ne ptr %79, null
  br i1 %80, label %133, label %81

81:                                               ; preds = %74
  %82 = load ptr, ptr %6, align 8
  %83 = getelementptr inbounds nuw %struct.Query, ptr %82, i32 0, i32 21
  %84 = load ptr, ptr %83, align 8
  %85 = getelementptr inbounds nuw %struct.FromExpr, ptr %84, i32 0, i32 2
  %86 = load ptr, ptr %85, align 8
  %87 = icmp ne ptr %86, null
  br i1 %87, label %133, label %88

88:                                               ; preds = %81
  %89 = load ptr, ptr %6, align 8
  %90 = getelementptr inbounds nuw %struct.Query, ptr %89, i32 0, i32 31
  %91 = load ptr, ptr %90, align 8
  %92 = icmp ne ptr %91, null
  br i1 %92, label %133, label %93

93:                                               ; preds = %88
  %94 = load ptr, ptr %6, align 8
  %95 = getelementptr inbounds nuw %struct.Query, ptr %94, i32 0, i32 33
  %96 = load ptr, ptr %95, align 8
  %97 = icmp ne ptr %96, null
  br i1 %97, label %133, label %98

98:                                               ; preds = %93
  %99 = load ptr, ptr %6, align 8
  %100 = getelementptr inbounds nuw %struct.Query, ptr %99, i32 0, i32 34
  %101 = load ptr, ptr %100, align 8
  %102 = icmp ne ptr %101, null
  br i1 %102, label %133, label %103

103:                                              ; preds = %98
  %104 = load ptr, ptr %6, align 8
  %105 = getelementptr inbounds nuw %struct.Query, ptr %104, i32 0, i32 35
  %106 = load ptr, ptr %105, align 8
  %107 = icmp ne ptr %106, null
  br i1 %107, label %133, label %108

108:                                              ; preds = %103
  %109 = load ptr, ptr %6, align 8
  %110 = getelementptr inbounds nuw %struct.Query, ptr %109, i32 0, i32 36
  %111 = load ptr, ptr %110, align 8
  %112 = icmp ne ptr %111, null
  br i1 %112, label %133, label %113

113:                                              ; preds = %108
  %114 = load ptr, ptr %6, align 8
  %115 = getelementptr inbounds nuw %struct.Query, ptr %114, i32 0, i32 37
  %116 = load ptr, ptr %115, align 8
  %117 = icmp ne ptr %116, null
  br i1 %117, label %133, label %118

118:                                              ; preds = %113
  %119 = load ptr, ptr %6, align 8
  %120 = getelementptr inbounds nuw %struct.Query, ptr %119, i32 0, i32 38
  %121 = load ptr, ptr %120, align 8
  %122 = icmp ne ptr %121, null
  br i1 %122, label %133, label %123

123:                                              ; preds = %118
  %124 = load ptr, ptr %6, align 8
  %125 = getelementptr inbounds nuw %struct.Query, ptr %124, i32 0, i32 39
  %126 = load ptr, ptr %125, align 8
  %127 = icmp ne ptr %126, null
  br i1 %127, label %133, label %128

128:                                              ; preds = %123
  %129 = load ptr, ptr %6, align 8
  %130 = getelementptr inbounds nuw %struct.Query, ptr %129, i32 0, i32 42
  %131 = load ptr, ptr %130, align 8
  %132 = icmp ne ptr %131, null
  br i1 %132, label %133, label %134

133:                                              ; preds = %128, %123, %118, %113, %108, %103, %98, %93, %88, %81, %74, %69, %64, %59, %54, %49
  store i1 false, ptr %2, align 1
  store i32 1, ptr %7, align 4
  br label %142

134:                                              ; preds = %128
  %135 = load ptr, ptr %6, align 8
  %136 = getelementptr inbounds nuw %struct.Query, ptr %135, i32 0, i32 25
  %137 = load ptr, ptr %136, align 8
  %138 = call i32 @list_length(ptr noundef %137)
  %139 = icmp ne i32 %138, 1
  br i1 %139, label %140, label %141

140:                                              ; preds = %134
  store i1 false, ptr %2, align 1
  store i32 1, ptr %7, align 4
  br label %142

141:                                              ; preds = %134
  store i1 true, ptr %2, align 1
  store i32 1, ptr %7, align 4
  br label %142

142:                                              ; preds = %141, %140, %133, %48, %42, %36, %25, %15
  call void @llvm.lifetime.end.p0(i64 8, ptr %6) #12
  call void @llvm.lifetime.end.p0(i64 8, ptr %5) #12
  call void @llvm.lifetime.end.p0(i64 8, ptr %4) #12
  %143 = load i1, ptr %2, align 1
  ret i1 %143
}