; Function Attrs: nounwind uwtable
define internal fastcc zeroext i1 @exec_is_simple_query(ptr %.40.val) unnamed_addr #0 {
  %1 = tail call ptr @SPI_plan_get_plan_sources(ptr noundef %.40.val) #12
  %.not.i = icmp eq ptr %1, null
  br i1 %.not.i, label %list_length.exit.thread, label %list_length.exit

list_length.exit:                                 ; preds = %0
  %2 = getelementptr inbounds nuw i8, ptr %1, i64 4
  %3 = load i32, ptr %2, align 4
  %.not = icmp eq i32 %3, 1
  br i1 %.not, label %4, label %list_length.exit.thread

4:                                                ; preds = %list_length.exit
  %5 = getelementptr i8, ptr %1, i64 16
  %.val = load ptr, ptr %5, align 8
  %6 = load ptr, ptr %.val, align 8
  %7 = getelementptr inbounds nuw i8, ptr %6, i64 88
  %8 = load ptr, ptr %7, align 8
  %.not.i43 = icmp eq ptr %8, null
  br i1 %.not.i43, label %list_length.exit.thread, label %list_length.exit44

list_length.exit44:                               ; preds = %4
  %9 = getelementptr inbounds nuw i8, ptr %8, i64 4
  %10 = load i32, ptr %9, align 4
  %.not26 = icmp eq i32 %10, 1
  br i1 %.not26, label %11, label %list_length.exit.thread

11:                                               ; preds = %list_length.exit44
  %12 = getelementptr i8, ptr %8, i64 16
  %.val42 = load ptr, ptr %12, align 8
  %13 = load ptr, ptr %.val42, align 8
  %14 = load i32, ptr %13, align 4
  %15 = icmp eq i32 %14, 67
  br i1 %15, label %16, label %list_length.exit.thread

16:                                               ; preds = %11
  %17 = getelementptr inbounds nuw i8, ptr %13, i64 4
  %18 = load i32, ptr %17, align 4
  %.not27 = icmp eq i32 %18, 1
  br i1 %.not27, label %19, label %list_length.exit.thread

19:                                               ; preds = %16
  %20 = getelementptr inbounds nuw i8, ptr %13, i64 64
  %21 = load ptr, ptr %20, align 8
  %.not28 = icmp eq ptr %21, null
  br i1 %.not28, label %22, label %list_length.exit.thread

22:                                               ; preds = %19
  %23 = getelementptr inbounds nuw i8, ptr %13, i64 44
  %24 = load i8, ptr %23, align 4, !range !3, !noundef !4
  %25 = trunc nuw i8 %24 to i1
  br i1 %25, label %list_length.exit.thread, label %26

26:                                               ; preds = %22
  %27 = getelementptr inbounds nuw i8, ptr %13, i64 45
  %28 = load i8, ptr %27, align 1, !range !3, !noundef !4
  %29 = trunc nuw i8 %28 to i1
  br i1 %29, label %list_length.exit.thread, label %30

30:                                               ; preds = %26
  %31 = getelementptr inbounds nuw i8, ptr %13, i64 46
  %32 = load i8, ptr %31, align 2, !range !3, !noundef !4
  %33 = trunc nuw i8 %32 to i1
  br i1 %33, label %list_length.exit.thread, label %34

34:                                               ; preds = %30
  %35 = getelementptr inbounds nuw i8, ptr %13, i64 47
  %36 = load i8, ptr %35, align 1, !range !3, !noundef !4
  %37 = trunc nuw i8 %36 to i1
  br i1 %37, label %list_length.exit.thread, label %38

38:                                               ; preds = %34
  %39 = getelementptr inbounds nuw i8, ptr %13, i64 56
  %40 = load ptr, ptr %39, align 8
  %.not29 = icmp eq ptr %40, null
  br i1 %.not29, label %41, label %list_length.exit.thread

41:                                               ; preds = %38
  %42 = getelementptr inbounds nuw i8, ptr %13, i64 80
  %43 = load ptr, ptr %42, align 8
  %44 = getelementptr inbounds nuw i8, ptr %43, i64 8
  %45 = load ptr, ptr %44, align 8
  %.not30 = icmp eq ptr %45, null
  br i1 %.not30, label %46, label %list_length.exit.thread

46:                                               ; preds = %41
  %47 = getelementptr inbounds nuw i8, ptr %43, i64 16
  %48 = load ptr, ptr %47, align 8
  %.not31 = icmp eq ptr %48, null
  br i1 %.not31, label %49, label %list_length.exit.thread

49:                                               ; preds = %46
  %50 = getelementptr inbounds nuw i8, ptr %13, i64 160
  %51 = load ptr, ptr %50, align 8
  %.not32 = icmp eq ptr %51, null
  br i1 %.not32, label %52, label %list_length.exit.thread

52:                                               ; preds = %49
  %53 = getelementptr inbounds nuw i8, ptr %13, i64 176
  %54 = load ptr, ptr %53, align 8
  %.not33 = icmp eq ptr %54, null
  br i1 %.not33, label %55, label %list_length.exit.thread

55:                                               ; preds = %52
  %56 = getelementptr inbounds nuw i8, ptr %13, i64 184
  %57 = load ptr, ptr %56, align 8
  %.not34 = icmp eq ptr %57, null
  br i1 %.not34, label %58, label %list_length.exit.thread

58:                                               ; preds = %55
  %59 = getelementptr inbounds nuw i8, ptr %13, i64 192
  %60 = load ptr, ptr %59, align 8
  %.not35 = icmp eq ptr %60, null
  br i1 %.not35, label %61, label %list_length.exit.thread

61:                                               ; preds = %58
  %62 = getelementptr inbounds nuw i8, ptr %13, i64 200
  %63 = load ptr, ptr %62, align 8
  %.not36 = icmp eq ptr %63, null
  br i1 %.not36, label %64, label %list_length.exit.thread

64:                                               ; preds = %61
  %65 = getelementptr inbounds nuw i8, ptr %13, i64 208
  %66 = load ptr, ptr %65, align 8
  %.not37 = icmp eq ptr %66, null
  br i1 %.not37, label %67, label %list_length.exit.thread

67:                                               ; preds = %64
  %68 = getelementptr inbounds nuw i8, ptr %13, i64 216
  %69 = load ptr, ptr %68, align 8
  %.not38 = icmp eq ptr %69, null
  br i1 %.not38, label %70, label %list_length.exit.thread

70:                                               ; preds = %67
  %71 = getelementptr inbounds nuw i8, ptr %13, i64 224
  %72 = load ptr, ptr %71, align 8
  %.not39 = icmp eq ptr %72, null
  br i1 %.not39, label %73, label %list_length.exit.thread

73:                                               ; preds = %70
  %74 = getelementptr inbounds nuw i8, ptr %13, i64 248
  %75 = load ptr, ptr %74, align 8
  %.not40 = icmp eq ptr %75, null
  br i1 %.not40, label %76, label %list_length.exit.thread

76:                                               ; preds = %73
  %77 = getelementptr inbounds nuw i8, ptr %13, i64 112
  %78 = load ptr, ptr %77, align 8
  %.not.i45 = icmp eq ptr %78, null
  br i1 %.not.i45, label %list_length.exit.thread, label %79

79:                                               ; preds = %76
  %80 = getelementptr inbounds nuw i8, ptr %78, i64 4
  %81 = load i32, ptr %80, align 4
  %82 = icmp eq i32 %81, 1
  br label %list_length.exit.thread

list_length.exit.thread:                          ; preds = %79, %76, %4, %0, %22, %26, %30, %34, %38, %41, %46, %49, %52, %55, %58, %61, %64, %67, %70, %73, %19, %16, %11, %list_length.exit44, %list_length.exit
  %.0 = phi i1 [ false, %list_length.exit ], [ false, %list_length.exit44 ], [ false, %11 ], [ false, %16 ], [ false, %19 ], [ false, %73 ], [ false, %70 ], [ false, %67 ], [ false, %64 ], [ false, %61 ], [ false, %58 ], [ false, %55 ], [ false, %52 ], [ false, %49 ], [ false, %46 ], [ false, %41 ], [ false, %38 ], [ false, %34 ], [ false, %30 ], [ false, %26 ], [ false, %22 ], [ false, %0 ], [ false, %4 ], [ %82, %79 ], [ false, %76 ]
  ret i1 %.0
}